target datalayout = "e-m:e-p270:32:32-p271:32:32-p272:64:64-i64:64-i128:128-f80:128-n8:16:32:64-S128"
target triple = "x86_64-pc-linux-gnu"

%"class.icu_77::GMTOffsetField" = type <{ ptr, ptr, i32, i8, [3 x i8] }>

@_ZN6icu_7714GMTOffsetFieldC1Ev = unnamed_addr alias void (ptr), ptr @_ZN6icu_7714GMTOffsetFieldC2Ev

; Function Attrs: inlinehint mustprogress nounwind uwtable
define internal noundef signext i8 @_ZL9U_FAILURE10UErrorCode(i32 noundef %0) #2 {
  %2 = alloca i32, align 4
  store i32 %0, ptr %2, align 4, !tbaa !15
  %3 = load i32, ptr %2, align 4, !tbaa !15
  %4 = icmp sgt i32 %3, 0
  %5 = zext i1 %4 to i8
  ret i8 %5
}

; Function Attrs: mustprogress uwtable
define noundef ptr @_ZN6icu_7714GMTOffsetField15createTimeFieldENS0_9FieldTypeEhR10UErrorCode(i32 noundef %0, i8 noundef zeroext %1, ptr noundef nonnull align 4 dereferenceable(4) %2) #1 align 2 personality ptr @__gxx_personality_v0 {
  %4 = alloca ptr, align 8
  %5 = alloca i32, align 4
  %6 = alloca i8, align 1
  %7 = alloca ptr, align 8
  %8 = alloca ptr, align 8
  %9 = alloca ptr, align 8
  %10 = alloca i1, align 1
  %11 = alloca ptr, align 8
  %12 = alloca i32, align 4
  %13 = alloca i32, align 4
  store i32 %0, ptr %5, align 4, !tbaa !38
  store i8 %1, ptr %6, align 1, !tbaa !37
  store ptr %2, ptr %7, align 8, !tbaa !22
  %14 = load ptr, ptr %7, align 8, !tbaa !22
  %15 = load i32, ptr %14, align 4, !tbaa !15
  %16 = call noundef signext i8 @_ZL9U_FAILURE10UErrorCode(i32 noundef %15)
  %17 = icmp ne i8 %16, 0
  br i1 %17, label %18, label %19

18:                                               ; preds = %3
  store ptr null, ptr %4, align 8
  br label %47

19:                                               ; preds = %3
  call void @llvm.lifetime.start.p0(i64 8, ptr %8) #15
  %20 = call noundef ptr @_ZN6icu_777UMemorynwEm(i64 noundef 24) #15
  %21 = icmp eq ptr %20, null
  store i1 false, ptr %10, align 1
  br i1 %21, label %24, label %22

22:                                               ; preds = %19
  store ptr %20, ptr %9, align 8
  store i1 true, ptr %10, align 1
  invoke void @_ZN6icu_7714GMTOffsetFieldC1Ev(ptr noundef nonnull align 8 dereferenceable(21) %20)
          to label %23 unwind label %30

23:                                               ; preds = %22
  br label %24

24:                                               ; preds = %23, %19
  %25 = phi ptr [ %20, %23 ], [ null, %19 ]
  store ptr %25, ptr %8, align 8, !tbaa !23
  %26 = load ptr, ptr %8, align 8, !tbaa !23
  %27 = icmp eq ptr %26, null
  br i1 %27, label %28, label %38

28:                                               ; preds = %24
  %29 = load ptr, ptr %7, align 8, !tbaa !22
  store i32 7, ptr %29, align 4, !tbaa !15
  store ptr null, ptr %4, align 8
  store i32 1, ptr %13, align 4
  br label %46

30:                                               ; preds = %22
  %31 = landingpad { ptr, i32 }
          cleanup
  %32 = extractvalue { ptr, i32 } %31, 0
  store ptr %32, ptr %11, align 8
  %33 = extractvalue { ptr, i32 } %31, 1
  store i32 %33, ptr %12, align 4
  %34 = load i1, ptr %10, align 1
  br i1 %34, label %35, label %37

35:                                               ; preds = %30
  %36 = load ptr, ptr %9, align 8
  call void @_ZN6icu_777UMemorydlEPv(ptr noundef %36) #15
  br label %37

37:                                               ; preds = %35, %30
  call void @llvm.lifetime.end.p0(i64 8, ptr %8) #15
  br label %49

38:                                               ; preds = %24
  %39 = load i32, ptr %5, align 4, !tbaa !38
  %40 = load ptr, ptr %8, align 8, !tbaa !23
  %41 = getelementptr inbounds nuw %"class.icu_77::GMTOffsetField", ptr %40, i32 0, i32 2
  store i32 %39, ptr %41, align 8, !tbaa !31
  %42 = load i8, ptr %6, align 1, !tbaa !37
  %43 = load ptr, ptr %8, align 8, !tbaa !23
  %44 = getelementptr inbounds nuw %"class.icu_77::GMTOffsetField", ptr %43, i32 0, i32 3
  store i8 %42, ptr %44, align 4, !tbaa !32
  %45 = load ptr, ptr %8, align 8, !tbaa !23
  store ptr %45, ptr %4, align 8
  store i32 1, ptr %13, align 4
  br label %46

46:                                               ; preds = %38, %28
  call void @llvm.lifetime.end.p0(i64 8, ptr %8) #15
  br label %47

47:                                               ; preds = %46, %18
  %48 = load ptr, ptr %4, align 8
  ret ptr %48

49:                                               ; preds = %37
  %50 = load ptr, ptr %11, align 8
  %51 = load i32, ptr %12, align 4
  %52 = insertvalue { ptr, i32 } poison, ptr %50, 0
  %53 = insertvalue { ptr, i32 } %52, i32 %51, 1
  resume { ptr, i32 } %53
}