; Function Attrs: mustprogress uwtable
define noundef ptr @_ZN6icu_7714GMTOffsetField15createTimeFieldENS0_9FieldTypeEhR10UErrorCode(i32 noundef %0, i8 noundef zeroext %1, ptr noundef nonnull align 4 captures(none) dereferenceable(4) %2) local_unnamed_addr #1 align 2 personality ptr @__gxx_personality_v0 {
  %4 = load i32, ptr %2, align 4, !tbaa !13
  %5 = icmp slt i32 %4, 1
  br i1 %5, label %6, label %16

6:                                                ; preds = %3
  %7 = tail call noundef ptr @_ZN6icu_777UMemorynwEm(i64 noundef 24) #22
  %8 = icmp eq ptr %7, null
  br i1 %8, label %10, label %9

9:                                                ; preds = %6
  invoke void @_ZN6icu_7714GMTOffsetFieldC1Ev(ptr noundef nonnull align 8 dereferenceable(21) %7)
          to label %13 unwind label %11

10:                                               ; preds = %6
  store i32 7, ptr %2, align 4, !tbaa !13
  br label %16

11:                                               ; preds = %9
  %12 = landingpad { ptr, i32 }
          cleanup
  tail call void @_ZN6icu_777UMemorydlEPv(ptr noundef nonnull %7) #22
  resume { ptr, i32 } %12

13:                                               ; preds = %9
  %14 = getelementptr inbounds nuw i8, ptr %7, i64 16
  store i32 %0, ptr %14, align 8, !tbaa !21
  %15 = getelementptr inbounds nuw i8, ptr %7, i64 20
  store i8 %1, ptr %15, align 4, !tbaa !22
  br label %16

16:                                               ; preds = %10, %13, %3
  %.0 = phi ptr [ null, %3 ], [ null, %10 ], [ %7, %13 ]
  ret ptr %.0
}